target datalayout = "e-m:e-p270:32:32-p271:32:32-p272:64:64-i64:64-i128:128-f80:128-n8:16:32:64-S128"
target triple = "x86_64-pc-linux-gnu"

; Function Attrs: nounwind uwtable
define i32 @Fraig_BitStringCountOnes(ptr noundef %0, i32 noundef %1) #0 {
  %3 = alloca ptr, align 8
  %4 = alloca i32, align 4
  %5 = alloca ptr, align 8
  %6 = alloca i32, align 4
  %7 = alloca i32, align 4
  %8 = alloca i32, align 4
  store ptr %0, ptr %3, align 8
  store i32 %1, ptr %4, align 4
  %9 = load ptr, ptr %3, align 8
  store ptr %9, ptr %5, align 8
  %10 = load i32, ptr %4, align 4
  %11 = sext i32 %10 to i64
  %12 = mul i64 4, %11
  %13 = trunc i64 %12 to i32
  store i32 %13, ptr %8, align 4
  store i32 0, ptr %7, align 4
  store i32 0, ptr %6, align 4
  br label %14

14:                                               ; preds = %29, %2
  %15 = load i32, ptr %6, align 4
  %16 = load i32, ptr %8, align 4
  %17 = icmp slt i32 %15, %16
  br i1 %17, label %18, label %32

18:                                               ; preds = %14
  %19 = load ptr, ptr %5, align 8
  %20 = load i32, ptr %6, align 4
  %21 = sext i32 %20 to i64
  %22 = getelementptr inbounds i8, ptr %19, i64 %21
  %23 = load i8, ptr %22, align 1
  %24 = zext i8 %23 to i64
  %25 = getelementptr inbounds [256 x i32], ptr @bit_count, i64 0, i64 %24
  %26 = load i32, ptr %25, align 4
  %27 = load i32, ptr %7, align 4
  %28 = add nsw i32 %27, %26
  store i32 %28, ptr %7, align 4
  br label %29

29:                                               ; preds = %18
  %30 = load i32, ptr %6, align 4
  %31 = add nsw i32 %30, 1
  store i32 %31, ptr %6, align 4
  br label %14, !llvm.loop !9

32:                                               ; preds = %14
  %33 = load i32, ptr %7, align 4
  ret i32 %33
}